target datalayout = "e-m:e-p270:32:32-p271:32:32-p272:64:64-i64:64-i128:128-f80:128-n8:16:32:64-S128"
target triple = "x86_64-pc-linux-gnu"

%struct.print_field = type { i32, ptr, ptr, i16 }

@print_fields_parsable_print = dso_local global i32 0, align 4
@fields_delimiter = dso_local global ptr null, align 8
@.str = private unnamed_addr constant [3 x i8] c"%s\00", align 1
@.str.1 = private unnamed_addr constant [5 x i8] c"%s%s\00", align 1
@.str.2 = private unnamed_addr constant [4 x i8] c"%s|\00", align 1
@.str.9 = private unnamed_addr constant [5 x i8] c"%*s \00", align 1
@.str.29 = private unnamed_addr constant [6 x i8] c"%-*s \00", align 1

; Function Attrs: nounwind uwtable
define dso_local void @print_fields_sluid(ptr noundef %0, ptr noundef %1, i32 noundef %2) #0 {
  %4 = alloca ptr, align 8
  %5 = alloca ptr, align 8
  %6 = alloca i32, align 4
  %7 = alloca i32, align 4
  %8 = alloca i64, align 8
  %9 = alloca ptr, align 8
  store ptr %0, ptr %4, align 8
  store ptr %1, ptr %5, align 8
  store i32 %2, ptr %6, align 4
  call void @llvm.lifetime.start.p0(i64 4, ptr %7) #10
  %10 = load ptr, ptr %4, align 8
  %11 = getelementptr inbounds nuw %struct.print_field, ptr %10, i32 0, i32 0
  %12 = load i32, ptr %11, align 8
  %13 = call i32 @llvm.abs.i32(i32 %12, i1 true)
  store i32 %13, ptr %7, align 4
  call void @llvm.lifetime.start.p0(i64 8, ptr %8) #10
  store i64 0, ptr %8, align 8
  call void @llvm.lifetime.start.p0(i64 8, ptr %9) #10
  store ptr null, ptr %9, align 8
  %14 = load ptr, ptr %5, align 8
  %15 = icmp ne ptr %14, null
  br i1 %15, label %16, label %19

16:                                               ; preds = %3
  %17 = load ptr, ptr %5, align 8
  %18 = load i64, ptr %17, align 8
  store i64 %18, ptr %8, align 8
  br label %19

19:                                               ; preds = %16, %3
  %20 = load i64, ptr %8, align 8
  %21 = call ptr @sluid2str(i64 noundef %20)
  store ptr %21, ptr %9, align 8
  %22 = load i32, ptr @print_fields_parsable_print, align 4
  %23 = icmp eq i32 %22, 2
  br i1 %23, label %24, label %30

24:                                               ; preds = %19
  %25 = load i32, ptr %6, align 4
  %26 = icmp ne i32 %25, 0
  br i1 %26, label %27, label %30

27:                                               ; preds = %24
  %28 = load ptr, ptr %9, align 8
  %29 = call i32 (ptr, ...) @printf(ptr noundef @.str, ptr noundef %28)
  br label %66

30:                                               ; preds = %24, %19
  %31 = load i32, ptr @print_fields_parsable_print, align 4
  %32 = icmp ne i32 %31, 0
  br i1 %32, label %33, label %39

33:                                               ; preds = %30
  %34 = load ptr, ptr @fields_delimiter, align 8
  %35 = icmp ne ptr %34, null
  br i1 %35, label %39, label %36

36:                                               ; preds = %33
  %37 = load ptr, ptr %9, align 8
  %38 = call i32 (ptr, ...) @printf(ptr noundef @.str.2, ptr noundef %37)
  br label %65

39:                                               ; preds = %33, %30
  %40 = load i32, ptr @print_fields_parsable_print, align 4
  %41 = icmp ne i32 %40, 0
  br i1 %41, label %42, label %49

42:                                               ; preds = %39
  %43 = load ptr, ptr @fields_delimiter, align 8
  %44 = icmp ne ptr %43, null
  br i1 %44, label %45, label %49

45:                                               ; preds = %42
  %46 = load ptr, ptr %9, align 8
  %47 = load ptr, ptr @fields_delimiter, align 8
  %48 = call i32 (ptr, ...) @printf(ptr noundef @.str.1, ptr noundef %46, ptr noundef %47)
  br label %64

49:                                               ; preds = %42, %39
  %50 = load ptr, ptr %4, align 8
  %51 = getelementptr inbounds nuw %struct.print_field, ptr %50, i32 0, i32 0
  %52 = load i32, ptr %51, align 8
  %53 = load i32, ptr %7, align 4
  %54 = icmp eq i32 %52, %53
  br i1 %54, label %55, label %59

55:                                               ; preds = %49
  %56 = load i32, ptr %7, align 4
  %57 = load ptr, ptr %9, align 8
  %58 = call i32 (ptr, ...) @printf(ptr noundef @.str.9, i32 noundef %56, ptr noundef %57)
  br label %63

59:                                               ; preds = %49
  %60 = load i32, ptr %7, align 4
  %61 = load ptr, ptr %9, align 8
  %62 = call i32 (ptr, ...) @printf(ptr noundef @.str.29, i32 noundef %60, ptr noundef %61)
  br label %63

63:                                               ; preds = %59, %55
  br label %64

64:                                               ; preds = %63, %45
  br label %65

65:                                               ; preds = %64, %36
  br label %66

66:                                               ; preds = %65, %27
  call void @slurm_xfree(ptr noundef %9)
  call void @llvm.lifetime.end.p0(i64 8, ptr %9) #10
  call void @llvm.lifetime.end.p0(i64 8, ptr %8) #10
  call void @llvm.lifetime.end.p0(i64 4, ptr %7) #10
  ret void
}