; Function Attrs: nounwind uwtable
define dso_local void @print_fields_sluid(ptr noundef readonly captures(none) %0, ptr noundef readonly captures(address_is_null) %1, i32 noundef %2) local_unnamed_addr #0 {
  %4 = alloca ptr, align 8
  %5 = load i32, ptr %0, align 8
  %6 = tail call i32 @llvm.abs.i32(i32 %5, i1 true)
  call void @llvm.lifetime.start.p0(i64 8, ptr nonnull %4) #11
  %.not = icmp eq ptr %1, null
  br i1 %.not, label %9, label %7

7:                                                ; preds = %3
  %8 = load i64, ptr %1, align 8
  br label %9

9:                                                ; preds = %7, %3
  %.0 = phi i64 [ %8, %7 ], [ 0, %3 ]
  %10 = tail call ptr @sluid2str(i64 noundef %.0) #11
  store ptr %10, ptr %4, align 8
  %11 = load i32, ptr @print_fields_parsable_print, align 4
  %12 = icmp eq i32 %11, 2
  %13 = icmp ne i32 %2, 0
  %or.cond = and i1 %13, %12
  br i1 %or.cond, label %14, label %16

14:                                               ; preds = %9
  %15 = tail call i32 (ptr, ...) @printf(ptr noundef nonnull dereferenceable(1) @.str, ptr noundef %10)
  br label %33

16:                                               ; preds = %9
  %17 = icmp eq i32 %11, 0
  %18 = load ptr, ptr @fields_delimiter, align 8
  %19 = icmp ne ptr %18, null
  %or.cond3 = select i1 %17, i1 true, i1 %19
  br i1 %or.cond3, label %22, label %20

20:                                               ; preds = %16
  %21 = tail call i32 (ptr, ...) @printf(ptr noundef nonnull dereferenceable(1) @.str.2, ptr noundef %10)
  br label %33

22:                                               ; preds = %16
  %23 = icmp ne i32 %11, 0
  %or.cond5 = select i1 %23, i1 %19, i1 false
  br i1 %or.cond5, label %24, label %26

24:                                               ; preds = %22
  %25 = tail call i32 (ptr, ...) @printf(ptr noundef nonnull dereferenceable(1) @.str.1, ptr noundef %10, ptr noundef nonnull %18)
  br label %33

26:                                               ; preds = %22
  %27 = load i32, ptr %0, align 8
  %28 = icmp eq i32 %27, %6
  br i1 %28, label %29, label %31

29:                                               ; preds = %26
  %30 = tail call i32 (ptr, ...) @printf(ptr noundef nonnull dereferenceable(1) @.str.9, i32 noundef %6, ptr noundef %10)
  br label %33

31:                                               ; preds = %26
  %32 = tail call i32 (ptr, ...) @printf(ptr noundef nonnull dereferenceable(1) @.str.29, i32 noundef %6, ptr noundef %10)
  br label %33

33:                                               ; preds = %20, %29, %31, %24, %14
  call void @slurm_xfree(ptr noundef nonnull %4) #11
  call void @llvm.lifetime.end.p0(i64 8, ptr nonnull %4) #11
  ret void
}